target datalayout = "e-m:e-p270:32:32-p271:32:32-p272:64:64-i64:64-i128:128-f80:128-n8:16:32:64-S128"
target triple = "x86_64-pc-linux-gnu"

%struct.stat = type { i64, i64, i64, i32, i32, i32, i32, i64, i64, i64, i64, %struct.timespec, %struct.timespec, %struct.timespec, [3 x i64] }
%struct.timespec = type { i64, i64 }

@.str = private unnamed_addr constant [6 x i8] c"dir.c\00", align 1
@the_repository = external global ptr, align 8
@.str.9 = private unnamed_addr constant [58 x i8] c"do not know how to check file existence in arbitrary repo\00", align 1

; Function Attrs: nounwind uwtable
define dso_local i32 @file_exists(ptr noundef %0) #0 {
  %2 = alloca ptr, align 8
  %3 = alloca %struct.stat, align 8
  store ptr %0, ptr %2, align 8, !tbaa !13
  call void @llvm.lifetime.start.p0(i64 144, ptr %3) #12
  %4 = load ptr, ptr %2, align 8, !tbaa !13
  %5 = call i32 @lstat64(ptr noundef %4, ptr noundef %3) #12
  %6 = icmp eq i32 %5, 0
  %7 = zext i1 %6 to i32
  call void @llvm.lifetime.end.p0(i64 144, ptr %3) #12
  ret i32 %7
}

; Function Attrs: nounwind uwtable
define dso_local i32 @repo_file_exists(ptr noundef %0, ptr noundef %1) #0 {
  %3 = alloca ptr, align 8
  %4 = alloca ptr, align 8
  store ptr %0, ptr %3, align 8, !tbaa !140
  store ptr %1, ptr %4, align 8, !tbaa !13
  %5 = load ptr, ptr %3, align 8, !tbaa !140
  %6 = load ptr, ptr @the_repository, align 8, !tbaa !140
  %7 = icmp ne ptr %5, %6
  br i1 %7, label %8, label %9

8:                                                ; preds = %2
  call void (ptr, i32, ptr, ...) @BUG_fl(ptr noundef @.str, i32 noundef 3149, ptr noundef @.str.9) #14
  unreachable

9:                                                ; preds = %2
  %10 = load ptr, ptr %4, align 8, !tbaa !13
  %11 = call i32 @file_exists(ptr noundef %10)
  ret i32 %11
}