; Function Attrs: nounwind uwtable
define dso_local range(i32 0, 2) i32 @repo_file_exists(ptr noundef readnone %0, ptr noundef readonly captures(none) %1) local_unnamed_addr #0 {
  %3 = alloca %struct.stat, align 8
  %4 = load ptr, ptr @the_repository, align 8, !tbaa !132
  %.not = icmp eq ptr %0, %4
  br i1 %.not, label %6, label %5

5:                                                ; preds = %2
  tail call void (ptr, i32, ptr, ...) @BUG_fl(ptr noundef nonnull @.str, i32 noundef 3149, ptr noundef nonnull @.str.9) #29
  unreachable

6:                                                ; preds = %2
  call void @llvm.lifetime.start.p0(i64 144, ptr nonnull %3) #27
  %7 = call i32 @lstat64(ptr noundef readonly %1, ptr noundef nonnull %3) #27
  %8 = icmp eq i32 %7, 0
  %9 = zext i1 %8 to i32
  call void @llvm.lifetime.end.p0(i64 144, ptr nonnull %3) #27
  ret i32 %9
}